target datalayout = "e-m:e-p270:32:32-p271:32:32-p272:64:64-i64:64-i128:128-f80:128-n8:16:32:64-S128"
target triple = "x86_64-unknown-linux-gnu"

%"class.std::basic_string_view" = type { i64, ptr }
%"class.std::__shared_count" = type { ptr }
%"class.coro_rpc::context_base" = type { %"class.std::shared_ptr" }
%"class.std::shared_ptr" = type { %"class.std::__shared_ptr" }
%"class.std::__shared_ptr" = type { ptr, %"class.std::__shared_count" }
%class.anon.10 = type { %"class.std::basic_string_view", %"class.coro_rpc::context_base" }

; Function Attrs: mustprogress nounwind uwtable
define internal { i64, ptr } @"_ZZ21echo_with_attachment2N8coro_rpc12context_baseIvNS_8protocol17coro_rpc_protocolEEEENK3$_0clEv"(ptr noundef nonnull align 8 dereferenceable(32) %this) #6 align 2 {
entry:
  %retval = alloca %"class.std::basic_string_view", align 8
  %this.addr = alloca ptr, align 8
  store ptr %this, ptr %this.addr, align 8
  %this1 = load ptr, ptr %this.addr, align 8
  %0 = getelementptr inbounds %class.anon.10, ptr %this1, i32 0, i32 0
  call void @llvm.memcpy.p0.p0.i64(ptr align 8 %retval, ptr align 8 %0, i64 16, i1 false)
  %1 = load { i64, ptr }, ptr %retval, align 8
  ret { i64, ptr } %1
}

; Function Attrs: mustprogress nounwind uwtable
define linkonce_odr dso_local noundef ptr @_ZNKSt9_Any_data9_M_accessEv(ptr noundef nonnull align 8 dereferenceable(16) %this) #6 comdat align 2 {
entry:
  %this.addr = alloca ptr, align 8
  store ptr %this, ptr %this.addr, align 8
  %this1 = load ptr, ptr %this.addr, align 8
  %arrayidx = getelementptr inbounds [16 x i8], ptr %this1, i64 0, i64 0
  ret ptr %arrayidx
}

; Function Attrs: mustprogress uwtable
define internal { i64, ptr } @"_ZSt13__invoke_implISt17basic_string_viewIcSt11char_traitsIcEERZ21echo_with_attachment2N8coro_rpc12context_baseIvNS4_8protocol17coro_rpc_protocolEEEE3$_0JEET_St14__invoke_otherOT0_DpOT1_"(ptr noundef nonnull align 8 dereferenceable(32) %__f) #5 {
entry:
  %retval = alloca %"class.std::basic_string_view", align 8
  %__f.addr = alloca ptr, align 8
  store ptr %__f, ptr %__f.addr, align 8
  %0 = load ptr, ptr %__f.addr, align 8
  %call = call { i64, ptr } @"_ZZ21echo_with_attachment2N8coro_rpc12context_baseIvNS_8protocol17coro_rpc_protocolEEEENK3$_0clEv"(ptr noundef nonnull align 8 dereferenceable(32) %0)
  %1 = getelementptr inbounds { i64, ptr }, ptr %retval, i32 0, i32 0
  %2 = extractvalue { i64, ptr } %call, 0
  store i64 %2, ptr %1, align 8
  %3 = getelementptr inbounds { i64, ptr }, ptr %retval, i32 0, i32 1
  %4 = extractvalue { i64, ptr } %call, 1
  store ptr %4, ptr %3, align 8
  %5 = load { i64, ptr }, ptr %retval, align 8
  ret { i64, ptr } %5
}

; Function Attrs: mustprogress nounwind uwtable
define internal noundef nonnull align 8 dereferenceable(8) ptr @"_ZNKSt9_Any_data9_M_accessIPZ21echo_with_attachment2N8coro_rpc12context_baseIvNS1_8protocol17coro_rpc_protocolEEEE3$_0EERKT_v"(ptr noundef nonnull align 8 dereferenceable(16) %this) #6 align 2 {
entry:
  %this.addr = alloca ptr, align 8
  store ptr %this, ptr %this.addr, align 8
  %this1 = load ptr, ptr %this.addr, align 8
  %call = call noundef ptr @_ZNKSt9_Any_data9_M_accessEv(ptr noundef nonnull align 8 dereferenceable(16) %this1) #4
  ret ptr %call
}

; Function Attrs: mustprogress uwtable
define internal { i64, ptr } @"_ZSt10__invoke_rISt17basic_string_viewIcSt11char_traitsIcEERZ21echo_with_attachment2N8coro_rpc12context_baseIvNS4_8protocol17coro_rpc_protocolEEEE3$_0JEENSt9enable_ifIX16is_invocable_r_vIT_T0_DpT1_EESC_E4typeEOSD_DpOSE_"(ptr noundef nonnull align 8 dereferenceable(32) %__fn) #5 {
entry:
  %retval = alloca %"class.std::basic_string_view", align 8
  %__fn.addr = alloca ptr, align 8
  store ptr %__fn, ptr %__fn.addr, align 8
  %0 = load ptr, ptr %__fn.addr, align 8
  %call = call { i64, ptr } @"_ZSt13__invoke_implISt17basic_string_viewIcSt11char_traitsIcEERZ21echo_with_attachment2N8coro_rpc12context_baseIvNS4_8protocol17coro_rpc_protocolEEEE3$_0JEET_St14__invoke_otherOT0_DpOT1_"(ptr noundef nonnull align 8 dereferenceable(32) %0)
  %1 = getelementptr inbounds { i64, ptr }, ptr %retval, i32 0, i32 0
  %2 = extractvalue { i64, ptr } %call, 0
  store i64 %2, ptr %1, align 8
  %3 = getelementptr inbounds { i64, ptr }, ptr %retval, i32 0, i32 1
  %4 = extractvalue { i64, ptr } %call, 1
  store ptr %4, ptr %3, align 8
  %5 = load { i64, ptr }, ptr %retval, align 8
  ret { i64, ptr } %5
}

; Function Attrs: mustprogress nounwind uwtable
define internal noundef ptr @"_ZNSt14_Function_base13_Base_managerIZ21echo_with_attachment2N8coro_rpc12context_baseIvNS1_8protocol17coro_rpc_protocolEEEE3$_0E14_M_get_pointerERKSt9_Any_data"(ptr noundef nonnull align 8 dereferenceable(16) %__source) #6 align 2 {
entry:
  %__source.addr = alloca ptr, align 8
  store ptr %__source, ptr %__source.addr, align 8
  %0 = load ptr, ptr %__source.addr, align 8
  %call = call noundef nonnull align 8 dereferenceable(8) ptr @"_ZNKSt9_Any_data9_M_accessIPZ21echo_with_attachment2N8coro_rpc12context_baseIvNS1_8protocol17coro_rpc_protocolEEEE3$_0EERKT_v"(ptr noundef nonnull align 8 dereferenceable(16) %0) #4
  %1 = load ptr, ptr %call, align 8
  ret ptr %1
}

; Function Attrs: mustprogress uwtable
define internal { i64, ptr } @"_ZNSt17_Function_handlerIFSt17basic_string_viewIcSt11char_traitsIcEEvEZ21echo_with_attachment2N8coro_rpc12context_baseIvNS5_8protocol17coro_rpc_protocolEEEE3$_0E9_M_invokeERKSt9_Any_data"(ptr noundef nonnull align 8 dereferenceable(16) %__functor) #5 align 2 {
entry:
  %retval = alloca %"class.std::basic_string_view", align 8
  %__functor.addr = alloca ptr, align 8
  store ptr %__functor, ptr %__functor.addr, align 8
  %0 = load ptr, ptr %__functor.addr, align 8
  %call = call noundef ptr @"_ZNSt14_Function_base13_Base_managerIZ21echo_with_attachment2N8coro_rpc12context_baseIvNS1_8protocol17coro_rpc_protocolEEEE3$_0E14_M_get_pointerERKSt9_Any_data"(ptr noundef nonnull align 8 dereferenceable(16) %0) #4
  %call1 = call { i64, ptr } @"_ZSt10__invoke_rISt17basic_string_viewIcSt11char_traitsIcEERZ21echo_with_attachment2N8coro_rpc12context_baseIvNS4_8protocol17coro_rpc_protocolEEEE3$_0JEENSt9enable_ifIX16is_invocable_r_vIT_T0_DpT1_EESC_E4typeEOSD_DpOSE_"(ptr noundef nonnull align 8 dereferenceable(32) %call)
  %1 = getelementptr inbounds { i64, ptr }, ptr %retval, i32 0, i32 0
  %2 = extractvalue { i64, ptr } %call1, 0
  store i64 %2, ptr %1, align 8
  %3 = getelementptr inbounds { i64, ptr }, ptr %retval, i32 0, i32 1
  %4 = extractvalue { i64, ptr } %call1, 1
  store ptr %4, ptr %3, align 8
  %5 = load { i64, ptr }, ptr %retval, align 8
  ret { i64, ptr } %5
}