; Function Attrs: mustprogress nofree norecurse nosync nounwind willreturn memory(read, inaccessiblemem: none) uwtable
define internal { i64, ptr } @"_ZNSt17_Function_handlerIFSt17basic_string_viewIcSt11char_traitsIcEEvEZ21echo_with_attachment2N8coro_rpc12context_baseIvNS5_8protocol17coro_rpc_protocolEEEE3$_0E9_M_invokeERKSt9_Any_data"(ptr nocapture noundef nonnull readonly align 8 dereferenceable(16) %__functor) #26 align 2 {
entry:
  %__functor.val = load ptr, ptr %__functor, align 8
  %call.val = load i64, ptr %__functor.val, align 8
  %0 = getelementptr i8, ptr %__functor.val, i64 8
  %call.val1 = load ptr, ptr %0, align 8
  %.fca.0.insert.i.i.i = insertvalue { i64, ptr } poison, i64 %call.val, 0
  %.fca.1.insert.i.i.i = insertvalue { i64, ptr } %.fca.0.insert.i.i.i, ptr %call.val1, 1
  ret { i64, ptr } %.fca.1.insert.i.i.i
}